; Function Attrs: mustprogress uwtable
define noundef zeroext i1 @_ZN7rocksdb25CacheWithSecondaryAdapter15EvictionHandlerERKNS_5SliceEPNS_5Cache6HandleEb(ptr noundef nonnull align 8 dereferenceable(184) %this, ptr noundef nonnull align 8 dereferenceable(16) %key, ptr noundef %handle, i1 noundef zeroext %was_hit) local_unnamed_addr #0 align 2 personality ptr @__gxx_personality_v0 {
entry:
  %ref.tmp = alloca %"class.rocksdb::Status", align 8
  %vtable = load ptr, ptr %this, align 8
  %vfn = getelementptr inbounds i8, ptr %vtable, i64 168
  %0 = load ptr, ptr %vfn, align 8
  %call = tail call noundef ptr %0(ptr noundef nonnull align 8 dereferenceable(72) %this, ptr noundef %handle)
  %size_cb.i = getelementptr inbounds i8, ptr %call, i64 8
  %1 = load ptr, ptr %size_cb.i, align 8
  %cmp.i.not = icmp eq ptr %1, null
  br i1 %cmp.i.not, label %if.end18, label %land.lhs.true

land.lhs.true:                                    ; preds = %entry
  %adm_policy_ = getelementptr inbounds i8, ptr %this, i64 88
  %2 = load i32, ptr %adm_policy_, align 8
  %cmp.not = icmp eq i32 %2, 3
  br i1 %cmp.not, label %if.end18, label %if.then

if.then:                                          ; preds = %land.lhs.true
  %target_ = getelementptr inbounds i8, ptr %this, i64 56
  %3 = load ptr, ptr %target_, align 8
  %vtable4 = load ptr, ptr %3, align 8
  %vfn5 = getelementptr inbounds i8, ptr %vtable4, i64 64
  %4 = load ptr, ptr %vfn5, align 8
  %call6 = tail call noundef ptr %4(ptr noundef nonnull align 8 dereferenceable(56) %3, ptr noundef %handle)
  %cmp7.not = icmp eq ptr %call6, @_ZN7rocksdb12_GLOBAL__N_16kDummyE
  br i1 %cmp7.not, label %if.end18, label %if.then8

if.then8:                                         ; preds = %if.then
  %5 = load i32, ptr %adm_policy_, align 8
  %cmp10 = icmp eq i32 %5, 2
  %spec.select = and i1 %cmp10, %was_hit
  %secondary_cache_ = getelementptr inbounds i8, ptr %this, i64 72
  %6 = load ptr, ptr %secondary_cache_, align 8
  %vtable15 = load ptr, ptr %6, align 8
  %vfn16 = getelementptr inbounds i8, ptr %vtable15, i64 152
  %7 = load ptr, ptr %vfn16, align 8
  call void %7(ptr nonnull sret(%"class.rocksdb::Status") align 8 %ref.tmp, ptr noundef nonnull align 8 dereferenceable(32) %6, ptr noundef nonnull align 8 dereferenceable(16) %key, ptr noundef %call6, ptr noundef nonnull %call, i1 noundef zeroext %spec.select)
  %state_.i = getelementptr inbounds i8, ptr %ref.tmp, i64 8
  %8 = load ptr, ptr %state_.i, align 8
  %cmp.not.i.i = icmp eq ptr %8, null
  br i1 %cmp.not.i.i, label %if.end18, label %_ZNKSt14default_deleteIA_KcEclIS0_EENSt9enable_ifIXsr14is_convertibleIPA_T_PS1_EE5valueEvE4typeEPS5_.exit.i.i

_ZNKSt14default_deleteIA_KcEclIS0_EENSt9enable_ifIXsr14is_convertibleIPA_T_PS1_EE5valueEvE4typeEPS5_.exit.i.i: ; preds = %if.then8
  call void @_ZdaPv(ptr noundef nonnull %8) #20
  br label %if.end18

if.end18:                                         ; preds = %_ZNKSt14default_deleteIA_KcEclIS0_EENSt9enable_ifIXsr14is_convertibleIPA_T_PS1_EE5valueEvE4typeEPS5_.exit.i.i, %if.then8, %if.then, %land.lhs.true, %entry
  ret i1 false
}